(dp1
S'target_group'
p2
(lp3
(S'--'
p4
S'--'
p5
tp6
a(S'summary'
p7
S'Summary'
p8
tp9
a(S'general_prevalence'
p10
S'General Prevalence'
p11
tp12
a(S'age'
p13
S'Age'
p14
tp15
a(S'gender'
p16
S'Gender'
p17
tp18
a(S'sector'
p19
S'Sector'
p20
tp21
a(S'occupation'
p22
S'Occupation'
p23
tp24
a(S'employmentstatus'
p25
S'Employment Status'
p26
tp27
a(S'others'
p28
S'Others'
p29
tp30
as.