(dp1
S'country'
p2
(lp3
(S'--'
p4
S'--'
p5
tp6
a(S'at'
p7
S'Austria'
p8
tp9
a(S'cy'
p10
S'Cyprus'
p11
tp12
a(S'cz'
p13
S'Czech Republic'
p14
tp15
a(S'de'
p16
S'Germany'
p17
tp18
a(S'dk'
p19
S'Denmark'
p20
tp21
a(S'ee'
p22
S'Estonia'
p23
tp24
a(S'eu'
p25
S'Europe'
p26
tp27
a(S'fi'
p28
S'Finland'
p29
tp30
a(S'fr'
p31
S'France'
p32
tp33
a(S'gr'
p34
S'Greece'
p35
tp36
a(S'ie'
p37
S'Ireland'
p38
tp39
a(S'it'
p40
S'Italy'
p41
tp42
a(S'hu'
p43
S'Hungary'
p44
tp45
a(S'lt'
p46
S'Lithuania'
p47
tp48
a(S'lu'
p49
S'Luxembourg'
p50
tp51
a(S'lv'
p52
S'Latvia'
p53
tp54
a(S'mt'
p55
S'Malta'
p56
tp57
a(S'nl'
p58
S'Netherlands'
p59
tp60
a(S'ms'
p61
S'New Member States'
p62
tp63
a(S'pl'
p64
S'Poland'
p65
tp66
a(S'pt'
p67
S'Portugal'
p68
tp69
a(S'se'
p70
S'Sweden'
p71
tp72
a(S'si'
p73
S'Slovenia'
p74
tp75
a(S'sk'
p76
S'Slovakia'
p77
tp78
a(S'uk'
p79
S'United Kingdom'
p80
tp81
as.