(dp1
S'html_meta_keywords'
p2
(lp3
(S'osha'
p4
S'OSHA'
p5
tp6
a(S'occupational_safety'
p7
S'Sicherheit am Arbeitsplatz'
p8
tp9
a(S'osh'
p10
S'OSH'
p11
tp12
a(S'occ_health'
p13
S'Occupational health'
p14
tp15
as.