(dp1
S'keywords'
p2
(lp3
(S'accident_prevention'
p4
S'Accident Prevention'
p5
tp6
a(S'dangerous_substances'
p7
S'Dangerous Substances'
p8
tp9
a(S'msd'
p10
S'Muskel Skelett Erkrankung'
p11
tp12
a(S'noise'
p13
S'Noise'
p14
tp15
a(S'stress'
p16
S'Stress'
p17
tp18
a(S'construction'
p19
S'Construction'
p20
tp21
a(S'agriculture'
p22
S'Agriculture'
p23
tp24
a(S'education'
p25
S'Education'
p26
tp27
a(S'fisheries'
p28
S'Fisheries'
p29
tp30
a(S'health_care'
p31
S'Health Care'
p32
tp33
a(S'disabled_people'
p34
S'Disabled people'
p35
tp36
a(S'gender'
p37
S'Gender'
p38
tp39
a(S'young_people'
p40
S'Young people'
p41
tp42
a(S'hwi'
p43
S'Healthy Workplace Initiative'
p44
tp45
a(S'risk_observatory'
p46
S'Risk Observatory'
p47
tp48
a(S'ew2006'
p49
S'European Week 2006'
p50
tp51
a(S'ew2007'
p52
S'European Week 2007'
p53
tp54
a(S'legislation'
p55
S'Legislation'
p56
tp57
a(S'statistics'
p58
S'Statistics'
p59
tp60
a(S'research'
p61
S'Research'
p62
tp63
a(S'publications'
p64
S'Publications'
p65
tp66
a(S'html_meta_keywords'
p67
S'HTML meta keywords'
p68
tp69
as.